target datalayout = "e-m:e-p270:32:32-p271:32:32-p272:64:64-i64:64-i128:128-f80:128-n8:16:32:64-S128"
target triple = "x86_64-pc-linux-gnu"

%struct.nghttp2_option = type { i64, i64, i64, i64, i64, i64, i64, i32, i32, i32, i32, i32, i32, i32, i32, i32, i32, i32, [32 x i8] }

; Function Attrs: nounwind uwtable
define void @nghttp2_option_set_stream_reset_rate_limit(ptr noundef %0, i64 noundef %1, i64 noundef %2) #0 {
  %4 = alloca ptr, align 8
  %5 = alloca i64, align 8
  %6 = alloca i64, align 8
  store ptr %0, ptr %4, align 8, !tbaa !9
  store i64 %1, ptr %5, align 8, !tbaa !26
  store i64 %2, ptr %6, align 8, !tbaa !26
  %7 = load ptr, ptr %4, align 8, !tbaa !9
  %8 = getelementptr inbounds nuw %struct.nghttp2_option, ptr %7, i32 0, i32 7
  %9 = load i32, ptr %8, align 8, !tbaa !13
  %10 = or i32 %9, 32768
  store i32 %10, ptr %8, align 8, !tbaa !13
  %11 = load i64, ptr %5, align 8, !tbaa !26
  %12 = load ptr, ptr %4, align 8, !tbaa !9
  %13 = getelementptr inbounds nuw %struct.nghttp2_option, ptr %12, i32 0, i32 0
  store i64 %11, ptr %13, align 8, !tbaa !34
  %14 = load i64, ptr %6, align 8, !tbaa !26
  %15 = load ptr, ptr %4, align 8, !tbaa !9
  %16 = getelementptr inbounds nuw %struct.nghttp2_option, ptr %15, i32 0, i32 1
  store i64 %14, ptr %16, align 8, !tbaa !35
  ret void
}