; Function Attrs: mustprogress nofree norecurse nosync nounwind willreturn memory(argmem: readwrite) uwtable
define void @nghttp2_option_set_stream_reset_rate_limit(ptr noundef captures(none) initializes((0, 16)) %0, i64 noundef %1, i64 noundef %2) local_unnamed_addr #4 {
  %4 = getelementptr inbounds nuw i8, ptr %0, i64 56
  %5 = load i32, ptr %4, align 8, !tbaa !8
  %6 = or i32 %5, 32768
  store i32 %6, ptr %4, align 8, !tbaa !8
  store i64 %1, ptr %0, align 8, !tbaa !27
  %7 = getelementptr inbounds nuw i8, ptr %0, i64 8
  store i64 %2, ptr %7, align 8, !tbaa !28
  ret void
}